; Function Attrs: nounwind uwtable
define internal range(i32 -1, 1) i32 @H5D__btree_idx_copy_setup(ptr noundef readonly captures(none) %0, ptr noundef readonly captures(none) %1) #0 {
  %3 = alloca %struct.H5D_chunk_common_ud_t, align 8
  %4 = alloca i64, align 8
  call void @llvm.lifetime.start.p0(i64 8, ptr nonnull %4) #15
  store i64 -1, ptr %4, align 8, !tbaa !20
  call void @H5AC_tag(i64 noundef 2, ptr noundef nonnull %4) #15
  %5 = load i8, ptr @H5D_init_g, align 1, !tbaa !3, !range !7, !noundef !8
  %6 = trunc nuw i8 %5 to i1
  %7 = load i8, ptr @H5_libterm_g, align 1, !range !7
  %8 = trunc nuw i8 %7 to i1
  %9 = xor i1 %8, true
  %10 = select i1 %6, i1 true, i1 %9
  br i1 %10, label %11, label %57, !prof !9

11:                                               ; preds = %2
  %12 = load ptr, ptr %0, align 8, !tbaa !18
  %13 = getelementptr inbounds nuw i8, ptr %0, i64 24
  %14 = load ptr, ptr %13, align 8, !tbaa !10
  %15 = getelementptr inbounds nuw i8, ptr %0, i64 16
  %16 = load ptr, ptr %15, align 8, !tbaa !19
  %17 = call fastcc i32 @H5D__btree_shared_create(ptr noundef %12, ptr noundef %14, ptr noundef %16)
  %18 = icmp slt i32 %17, 0
  br i1 %18, label %19, label %23

19:                                               ; preds = %11
  %20 = load i64, ptr @H5E_RESOURCE_g, align 8, !tbaa !20
  %21 = load i64, ptr @H5E_CANTINIT_g, align 8, !tbaa !20
  %22 = call i32 (ptr, ptr, i32, i64, i64, ptr, ...) @H5E_printf_stack(ptr noundef nonnull @.str, ptr noundef nonnull @__func__.H5D__btree_idx_copy_setup, i32 noundef 1259, i64 noundef %20, i64 noundef %21, ptr noundef nonnull @.str.14) #15
  br label %57

23:                                               ; preds = %11
  %24 = load ptr, ptr %1, align 8, !tbaa !18
  %25 = getelementptr inbounds nuw i8, ptr %1, i64 24
  %26 = load ptr, ptr %25, align 8, !tbaa !10
  %27 = getelementptr inbounds nuw i8, ptr %1, i64 16
  %28 = load ptr, ptr %27, align 8, !tbaa !19
  %29 = call fastcc i32 @H5D__btree_shared_create(ptr noundef %24, ptr noundef %26, ptr noundef %28)
  %30 = icmp slt i32 %29, 0
  br i1 %30, label %31, label %35

31:                                               ; preds = %23
  %32 = load i64, ptr @H5E_RESOURCE_g, align 8, !tbaa !20
  %33 = load i64, ptr @H5E_CANTINIT_g, align 8, !tbaa !20
  %34 = call i32 (ptr, ptr, i32, i64, i64, ptr, ...) @H5E_printf_stack(ptr noundef nonnull @.str, ptr noundef nonnull @__func__.H5D__btree_idx_copy_setup, i32 noundef 1262, i64 noundef %32, i64 noundef %33, ptr noundef nonnull @.str.15) #15
  br label %57

35:                                               ; preds = %23
  call void @llvm.lifetime.start.p0(i64 24, ptr nonnull %3) #15
  %36 = load i8, ptr @H5D_init_g, align 1, !tbaa !3, !range !7, !noundef !8
  %37 = trunc nuw i8 %36 to i1
  %38 = load i8, ptr @H5_libterm_g, align 1, !range !7
  %39 = trunc nuw i8 %38 to i1
  %40 = xor i1 %39, true
  %41 = select i1 %37, i1 true, i1 %40
  br i1 %41, label %42, label %H5D__btree_idx_create.exit.thread, !prof !9

42:                                               ; preds = %35
  %43 = load ptr, ptr %27, align 8, !tbaa !19
  store ptr %43, ptr %3, align 8, !tbaa !22
  %44 = load ptr, ptr %25, align 8, !tbaa !10
  %45 = getelementptr inbounds nuw i8, ptr %3, i64 8
  store ptr %44, ptr %45, align 8, !tbaa !25
  %46 = load ptr, ptr %1, align 8, !tbaa !18
  %47 = getelementptr inbounds nuw i8, ptr %44, i64 8
  %48 = call i32 @H5B_create(ptr noundef %46, ptr noundef nonnull @H5B_BTREE, ptr noundef nonnull %3, ptr noundef nonnull %47) #15
  %49 = icmp slt i32 %48, 0
  br i1 %49, label %50, label %H5D__btree_idx_create.exit.thread

H5D__btree_idx_create.exit.thread:                ; preds = %42, %35
  call void @llvm.lifetime.end.p0(i64 24, ptr nonnull %3) #15
  br label %57

50:                                               ; preds = %42
  %51 = load i64, ptr @H5E_DATASET_g, align 8, !tbaa !20
  %52 = load i64, ptr @H5E_CANTINIT_g, align 8, !tbaa !20
  %53 = call i32 (ptr, ptr, i32, i64, i64, ptr, ...) @H5E_printf_stack(ptr noundef nonnull @.str, ptr noundef nonnull @__func__.H5D__btree_idx_create, i32 noundef 873, i64 noundef %51, i64 noundef %52, ptr noundef nonnull @.str.5) #15
  call void @llvm.lifetime.end.p0(i64 24, ptr nonnull %3) #15
  %54 = load i64, ptr @H5E_IO_g, align 8, !tbaa !20
  %55 = load i64, ptr @H5E_CANTINIT_g, align 8, !tbaa !20
  %56 = call i32 (ptr, ptr, i32, i64, i64, ptr, ...) @H5E_printf_stack(ptr noundef nonnull @.str, ptr noundef nonnull @__func__.H5D__btree_idx_copy_setup, i32 noundef 1266, i64 noundef %54, i64 noundef %55, ptr noundef nonnull @.str.16) #15
  br label %57

57:                                               ; preds = %H5D__btree_idx_create.exit.thread, %19, %31, %50, %2
  %.0 = phi i32 [ -1, %19 ], [ -1, %31 ], [ -1, %50 ], [ 0, %2 ], [ 0, %H5D__btree_idx_create.exit.thread ]
  %58 = load i64, ptr %4, align 8, !tbaa !20
  call void @H5AC_tag(i64 noundef %58, ptr noundef null) #15
  call void @llvm.lifetime.end.p0(i64 8, ptr nonnull %4) #15
  ret i32 %.0
}